(dp1
I0
V\u6469\u5361
p2
sI1
V\u62ff\u94c1
p3
sI2
V\u99a5\u82ae\u767d
p4
sI3
V\u5361\u5e03\u5947\u8bfa
p5
sI4
V\u7126\u7cd6\u739b\u5947\u6735
p6
sI5
V\u6817\u9999\u739b\u5947\u6735
p7
sI6
V\u7f8e\u5f0f\u5496\u5561
p8
sI7
V\u5de7\u514b\u529b
p9
sI8
V\u8336
sI9
V\u7ea2\u8336
p10
sI10
V\u7eff\u8336
p11
sI11
V\u4e4c\u9f99\u8336
p12
sI12
V\u78a7\u87ba\u6625
p13
sI13
V\u51b0\u6447\u8336
p14
sI14
V\u9ed1\u52a0\u4ed1\u8336
p15
sI15
V\u7ea2\u6885\u9ed1\u52a0\u4ed1\u8336
p16
sI16
V\u8292\u679c\u6728\u69ff\u82b1\u8336
p17
sI17
V\u6728\u69ff\u82b1\u8336
p18
sI18
V\u67e0\u6aac\u8336
p19
sI19
V\u5e03\u4e01\u5976\u8336
p20
sI20
V\u7ea2\u8c46\u73cd\u73e0\u5976\u8336
p21
sI21
V\u4f4e\u5496\u5561\u56e0\u6469\u5361
p22
sI22
V\u4f4e\u5496\u5561\u56e0\u62ff\u94c1
p23
sI23
V\u8c46\u5976\u6469\u5361
p24
sI24
V\u8c46\u5976\u62ff\u94c1
p25
sI25
V\u8c46\u5976\u9999\u8349\u62ff\u94c1
p26
sI26
V\u8c46\u5976\u699b\u679c\u62ff\u94c1
p27
sI27
V\u6d77\u76d0\u7126\u7cd6\u739b\u5947\u6735
p28
sI28
V\u7126\u7cd6\u62ff\u94c1
p29
sI29
V\u7126\u7cd6\u6469\u5361
p30
sI30
V\u7ea2\u8336\u62ff\u94c1
p31
sI31
V\u7126\u7cd6\u5496\u5561\u661f\u51b0\u4e50
p32
sI32
V\u5496\u5561\u661f\u51b0\u4e50
p33
sI33
V\u6469\u5361\u661f\u51b0\u4e50
p34
sI34
V\u53ef\u53ef\u788e\u7247\u661f\u51b0\u4e50
p35
sI35
V\u8292\u679c\u897f\u756a\u83b2\u679c\u8336\u661f\u51b0\u4e50
p36
sI36
V\u8702\u5de2\u7cd6\u8106\u6469\u5361\u661f\u51b0\u4e50
p37
sI37
V\u5de7\u514b\u529b\u661f\u51b0\u4e50
p38
sI38
V\u84dd\u8393\u4f18\u916a
p39
sI39
V\u8513\u8d8a\u8393\u767d\u5de7\u514b\u529b\u98ce\u5473\u6469\u5361
p40
sI40
V\u5de7\u514b\u529b\u699b\u679c\u98ce\u5473\u739b\u5947\u6735
p41
sI41
V\u66f2\u5947\u62ff\u94c1
p42
sI42
V\u9999\u8349\u62ff\u94c1
p43
sI43
V\u9999\u8349\u99a5\u82ae\u767d
p44
sI44
V\u699b\u679c\u99a5\u82ae\u767d
p45
sI45
V\u9999\u8349\u739b\u5947\u6735
p46
sI46
V\u73cd\u73e0\u5976\u8336
p47
sI47
V\u699b\u679c\u7cd6\u6d46
p48
sI48
V\u9999\u8349\u7cd6\u6d46
p49
sI49
V\u699b\u679c\u62ff\u94c1
p50
sI50
V\u7126\u7cd6\u7cd6\u6d46
p51
sI51
V\u767d\u5de7\u514b\u529b
p52
sI52
V\u767d\u5de7\u514b\u529b\u6469\u5361
p53
sI53
V\u7ea2\u8c46\u5de7\u514b\u529b
p54
sI54
V\u7f8e\u5f0f\u52a0\u699b\u679c\u7cd6\u6d46
p55
sI55
V\u7f8e\u5f0f\u9999\u8349\u661f\u51b0\u4e50
p56
sI56
V\u62b9\u8336\u62ff\u94c1
p57
sI57
V\u62b9\u8336\u661f\u51b0\u4e50
p58
sI58
V\u6469\u5361\u788e\u7247\u661f\u51b0\u4e50
p59
sI59
V\u699b\u679c\u62ff\u94c1\u661f\u51b0\u4e50
p60
s.